target datalayout = "e-m:e-p270:32:32-p271:32:32-p272:64:64-i64:64-i128:128-f80:128-n8:16:32:64-S128"
target triple = "x86_64-unknown-linux-gnu"

%"class.OpenColorIO_v2_4dev::FileTransform" = type { %"class.OpenColorIO_v2_4dev::Transform", ptr }
%"class.OpenColorIO_v2_4dev::Transform" = type { ptr }
%"class.OpenColorIO_v2_4dev::FileTransform::Impl" = type <{ i32, i32, %"class.std::__cxx11::basic_string", %"class.std::__cxx11::basic_string", i32, [4 x i8] }>
%"class.std::__cxx11::basic_string" = type { %"struct.std::__cxx11::basic_string<char>::_Alloc_hider", i64, %union.anon }
%"struct.std::__cxx11::basic_string<char>::_Alloc_hider" = type { ptr }
%union.anon = type { i64, [8 x i8] }

@.str.2 = private unnamed_addr constant [16 x i8] c"<FileTransform \00", align 1
@.str.3 = private unnamed_addr constant [11 x i8] c"direction=\00", align 1
@.str.4 = private unnamed_addr constant [17 x i8] c", interpolation=\00", align 1
@.str.5 = private unnamed_addr constant [7 x i8] c", src=\00", align 1
@.str.6 = private unnamed_addr constant [9 x i8] c", cccid=\00", align 1
@.str.7 = private unnamed_addr constant [13 x i8] c", cdl_style=\00", align 1
@.str.8 = private unnamed_addr constant [2 x i8] c">\00", align 1

; Function Attrs: mustprogress nounwind uwtable
define linkonce_odr hidden noundef ptr @_ZNK19OpenColorIO_v2_4dev13FileTransform7getImplEv(ptr noundef nonnull align 8 dereferenceable(16) %this) #7 comdat align 2 {
entry:
  %this.addr = alloca ptr, align 8
  store ptr %this, ptr %this.addr, align 8
  %this1 = load ptr, ptr %this.addr, align 8
  %m_impl = getelementptr inbounds %"class.OpenColorIO_v2_4dev::FileTransform", ptr %this1, i32 0, i32 1
  %0 = load ptr, ptr %m_impl, align 8
  ret ptr %0
}

; Function Attrs: mustprogress uwtable
define noundef i32 @_ZNK19OpenColorIO_v2_4dev13FileTransform11getCDLStyleEv(ptr noundef nonnull align 8 dereferenceable(16) %this) #4 align 2 {
entry:
  %this.addr = alloca ptr, align 8
  store ptr %this, ptr %this.addr, align 8
  %this1 = load ptr, ptr %this.addr, align 8
  %call = call noundef ptr @_ZNK19OpenColorIO_v2_4dev13FileTransform7getImplEv(ptr noundef nonnull align 8 dereferenceable(16) %this1)
  %m_cdlStyle = getelementptr inbounds %"class.OpenColorIO_v2_4dev::FileTransform::Impl", ptr %call, i32 0, i32 4
  %0 = load i32, ptr %m_cdlStyle, align 8
  ret i32 %0
}

; Function Attrs: mustprogress uwtable
define noundef ptr @_ZNK19OpenColorIO_v2_4dev13FileTransform8getCCCIdEv(ptr noundef nonnull align 8 dereferenceable(16) %this) #4 align 2 {
entry:
  %this.addr = alloca ptr, align 8
  store ptr %this, ptr %this.addr, align 8
  %this1 = load ptr, ptr %this.addr, align 8
  %call = call noundef ptr @_ZNK19OpenColorIO_v2_4dev13FileTransform7getImplEv(ptr noundef nonnull align 8 dereferenceable(16) %this1)
  %m_cccid = getelementptr inbounds %"class.OpenColorIO_v2_4dev::FileTransform::Impl", ptr %call, i32 0, i32 3
  %call2 = call noundef ptr @_ZNKSt7__cxx1112basic_stringIcSt11char_traitsIcESaIcEE5c_strEv(ptr noundef nonnull align 8 dereferenceable(32) %m_cccid) #3
  ret ptr %call2
}

; Function Attrs: mustprogress uwtable
define noundef ptr @_ZNK19OpenColorIO_v2_4dev13FileTransform6getSrcEv(ptr noundef nonnull align 8 dereferenceable(16) %this) #4 align 2 {
entry:
  %this.addr = alloca ptr, align 8
  store ptr %this, ptr %this.addr, align 8
  %this1 = load ptr, ptr %this.addr, align 8
  %call = call noundef ptr @_ZNK19OpenColorIO_v2_4dev13FileTransform7getImplEv(ptr noundef nonnull align 8 dereferenceable(16) %this1)
  %m_src = getelementptr inbounds %"class.OpenColorIO_v2_4dev::FileTransform::Impl", ptr %call, i32 0, i32 2
  %call2 = call noundef ptr @_ZNKSt7__cxx1112basic_stringIcSt11char_traitsIcESaIcEE5c_strEv(ptr noundef nonnull align 8 dereferenceable(32) %m_src) #3
  ret ptr %call2
}

; Function Attrs: mustprogress uwtable
define noundef i32 @_ZNK19OpenColorIO_v2_4dev13FileTransform16getInterpolationEv(ptr noundef nonnull align 8 dereferenceable(16) %this) #4 align 2 {
entry:
  %this.addr = alloca ptr, align 8
  store ptr %this, ptr %this.addr, align 8
  %this1 = load ptr, ptr %this.addr, align 8
  %call = call noundef ptr @_ZNK19OpenColorIO_v2_4dev13FileTransform7getImplEv(ptr noundef nonnull align 8 dereferenceable(16) %this1)
  %m_interp = getelementptr inbounds %"class.OpenColorIO_v2_4dev::FileTransform::Impl", ptr %call, i32 0, i32 1
  %0 = load i32, ptr %m_interp, align 4
  ret i32 %0
}

; Function Attrs: mustprogress uwtable
define noundef nonnull align 8 dereferenceable(8) ptr @_ZN19OpenColorIO_v2_4devlsERSoRKNS_13FileTransformE(ptr noundef nonnull align 8 dereferenceable(8) %os, ptr noundef nonnull align 8 dereferenceable(16) %t) #4 {
entry:
  %os.addr = alloca ptr, align 8
  %t.addr = alloca ptr, align 8
  %cccid = alloca ptr, align 8
  %cdlStyle = alloca i32, align 4
  store ptr %os, ptr %os.addr, align 8
  store ptr %t, ptr %t.addr, align 8
  %0 = load ptr, ptr %os.addr, align 8
  %call = call noundef nonnull align 8 dereferenceable(8) ptr @_ZStlsISt11char_traitsIcEERSt13basic_ostreamIcT_ES5_PKc(ptr noundef nonnull align 8 dereferenceable(8) %0, ptr noundef @.str.2)
  %1 = load ptr, ptr %os.addr, align 8
  %call1 = call noundef nonnull align 8 dereferenceable(8) ptr @_ZStlsISt11char_traitsIcEERSt13basic_ostreamIcT_ES5_PKc(ptr noundef nonnull align 8 dereferenceable(8) %1, ptr noundef @.str.3)
  %2 = load ptr, ptr %t.addr, align 8
  %vtable = load ptr, ptr %2, align 8
  %vfn = getelementptr inbounds ptr, ptr %vtable, i64 1
  %3 = load ptr, ptr %vfn, align 8
  %call2 = call noundef i32 %3(ptr noundef nonnull align 8 dereferenceable(16) %2) #3
  %call3 = call noundef ptr @_ZN19OpenColorIO_v2_4dev26TransformDirectionToStringENS_18TransformDirectionE(i32 noundef %call2)
  %call4 = call noundef nonnull align 8 dereferenceable(8) ptr @_ZStlsISt11char_traitsIcEERSt13basic_ostreamIcT_ES5_PKc(ptr noundef nonnull align 8 dereferenceable(8) %call1, ptr noundef %call3)
  %4 = load ptr, ptr %os.addr, align 8
  %call5 = call noundef nonnull align 8 dereferenceable(8) ptr @_ZStlsISt11char_traitsIcEERSt13basic_ostreamIcT_ES5_PKc(ptr noundef nonnull align 8 dereferenceable(8) %4, ptr noundef @.str.4)
  %5 = load ptr, ptr %t.addr, align 8
  %call6 = call noundef i32 @_ZNK19OpenColorIO_v2_4dev13FileTransform16getInterpolationEv(ptr noundef nonnull align 8 dereferenceable(16) %5)
  %call7 = call noundef ptr @_ZN19OpenColorIO_v2_4dev21InterpolationToStringENS_13InterpolationE(i32 noundef %call6)
  %call8 = call noundef nonnull align 8 dereferenceable(8) ptr @_ZStlsISt11char_traitsIcEERSt13basic_ostreamIcT_ES5_PKc(ptr noundef nonnull align 8 dereferenceable(8) %call5, ptr noundef %call7)
  %6 = load ptr, ptr %os.addr, align 8
  %call9 = call noundef nonnull align 8 dereferenceable(8) ptr @_ZStlsISt11char_traitsIcEERSt13basic_ostreamIcT_ES5_PKc(ptr noundef nonnull align 8 dereferenceable(8) %6, ptr noundef @.str.5)
  %7 = load ptr, ptr %t.addr, align 8
  %call10 = call noundef ptr @_ZNK19OpenColorIO_v2_4dev13FileTransform6getSrcEv(ptr noundef nonnull align 8 dereferenceable(16) %7)
  %call11 = call noundef nonnull align 8 dereferenceable(8) ptr @_ZStlsISt11char_traitsIcEERSt13basic_ostreamIcT_ES5_PKc(ptr noundef nonnull align 8 dereferenceable(8) %call9, ptr noundef %call10)
  %8 = load ptr, ptr %t.addr, align 8
  %call12 = call noundef ptr @_ZNK19OpenColorIO_v2_4dev13FileTransform8getCCCIdEv(ptr noundef nonnull align 8 dereferenceable(16) %8)
  store ptr %call12, ptr %cccid, align 8
  %9 = load ptr, ptr %cccid, align 8
  %tobool = icmp ne ptr %9, null
  br i1 %tobool, label %land.lhs.true, label %if.end

land.lhs.true:                                    ; preds = %entry
  %10 = load ptr, ptr %cccid, align 8
  %11 = load i8, ptr %10, align 1
  %tobool13 = icmp ne i8 %11, 0
  br i1 %tobool13, label %if.then, label %if.end

if.then:                                          ; preds = %land.lhs.true
  %12 = load ptr, ptr %os.addr, align 8
  %call14 = call noundef nonnull align 8 dereferenceable(8) ptr @_ZStlsISt11char_traitsIcEERSt13basic_ostreamIcT_ES5_PKc(ptr noundef nonnull align 8 dereferenceable(8) %12, ptr noundef @.str.6)
  %13 = load ptr, ptr %t.addr, align 8
  %call15 = call noundef ptr @_ZNK19OpenColorIO_v2_4dev13FileTransform8getCCCIdEv(ptr noundef nonnull align 8 dereferenceable(16) %13)
  %call16 = call noundef nonnull align 8 dereferenceable(8) ptr @_ZStlsISt11char_traitsIcEERSt13basic_ostreamIcT_ES5_PKc(ptr noundef nonnull align 8 dereferenceable(8) %call14, ptr noundef %call15)
  br label %if.end

if.end:                                           ; preds = %if.then, %land.lhs.true, %entry
  %14 = load ptr, ptr %t.addr, align 8
  %call17 = call noundef i32 @_ZNK19OpenColorIO_v2_4dev13FileTransform11getCDLStyleEv(ptr noundef nonnull align 8 dereferenceable(16) %14)
  store i32 %call17, ptr %cdlStyle, align 4
  %15 = load i32, ptr %cdlStyle, align 4
  %cmp = icmp ne i32 %15, 1
  br i1 %cmp, label %if.then18, label %if.end22

if.then18:                                        ; preds = %if.end
  %16 = load ptr, ptr %os.addr, align 8
  %call19 = call noundef nonnull align 8 dereferenceable(8) ptr @_ZStlsISt11char_traitsIcEERSt13basic_ostreamIcT_ES5_PKc(ptr noundef nonnull align 8 dereferenceable(8) %16, ptr noundef @.str.7)
  %17 = load i32, ptr %cdlStyle, align 4
  %call20 = call noundef ptr @_ZN19OpenColorIO_v2_4dev16CDLStyleToStringENS_8CDLStyleE(i32 noundef %17)
  %call21 = call noundef nonnull align 8 dereferenceable(8) ptr @_ZStlsISt11char_traitsIcEERSt13basic_ostreamIcT_ES5_PKc(ptr noundef nonnull align 8 dereferenceable(8) %call19, ptr noundef %call20)
  br label %if.end22

if.end22:                                         ; preds = %if.then18, %if.end
  %18 = load ptr, ptr %os.addr, align 8
  %call23 = call noundef nonnull align 8 dereferenceable(8) ptr @_ZStlsISt11char_traitsIcEERSt13basic_ostreamIcT_ES5_PKc(ptr noundef nonnull align 8 dereferenceable(8) %18, ptr noundef @.str.8)
  %19 = load ptr, ptr %os.addr, align 8
  ret ptr %19
}